target datalayout = "e-m:e-p270:32:32-p271:32:32-p272:64:64-i64:64-i128:128-f80:128-n8:16:32:64-S128"
target triple = "x86_64-pc-linux-gnu"

%struct.la_zstream = type { ptr, i64, i64, ptr, i64, i64, i32, ptr, i32, ptr, ptr, ptr }

; Function Attrs: nounwind uwtable
define internal i32 @compression_end_lzma(ptr noundef %0, ptr noundef %1) #0 {
  %3 = alloca ptr, align 8
  %4 = alloca ptr, align 8
  %5 = alloca ptr, align 8
  store ptr %0, ptr %3, align 8
  store ptr %1, ptr %4, align 8
  %6 = load ptr, ptr %4, align 8
  %7 = getelementptr inbounds %struct.la_zstream, ptr %6, i32 0, i32 9
  %8 = load ptr, ptr %7, align 8
  store ptr %8, ptr %5, align 8
  %9 = load ptr, ptr %5, align 8
  call void @lzma_end(ptr noundef %9) #10
  %10 = load ptr, ptr %5, align 8
  call void @free(ptr noundef %10) #10
  %11 = load ptr, ptr %4, align 8
  %12 = getelementptr inbounds %struct.la_zstream, ptr %11, i32 0, i32 8
  store i32 0, ptr %12, align 8
  %13 = load ptr, ptr %4, align 8
  %14 = getelementptr inbounds %struct.la_zstream, ptr %13, i32 0, i32 9
  store ptr null, ptr %14, align 8
  ret i32 0
}