; Function Attrs: nounwind uwtable
define internal noundef i32 @compression_end_lzma(ptr readnone captures(none) %0, ptr noundef captures(none) initializes((64, 68)) %1) #0 {
  %3 = getelementptr inbounds nuw i8, ptr %1, i64 72
  %4 = load ptr, ptr %3, align 8
  tail call void @lzma_end(ptr noundef %4) #18
  tail call void @free(ptr noundef %4) #18
  %5 = getelementptr inbounds nuw i8, ptr %1, i64 64
  store i32 0, ptr %5, align 8
  store ptr null, ptr %3, align 8
  ret i32 0
}